target datalayout = "e-m:e-p270:32:32-p271:32:32-p272:64:64-i64:64-i128:128-f80:128-n8:16:32:64-S128"
target triple = "x86_64-pc-linux-gnu"

%"struct.std::atomic" = type { %"struct.std::__atomic_base" }
%"struct.std::__atomic_base" = type { i32 }
%"class.pxrInternal_v0_24__pxrReserved__::PcpPrimIndex_Graph" = type <{ %"class.pxrInternal_v0_24__pxrReserved__::TfSimpleRefBase.base", [4 x i8], %"class.std::shared_ptr", %"class.std::vector", i8, [7 x i8] }>
%"class.pxrInternal_v0_24__pxrReserved__::TfSimpleRefBase.base" = type { %"class.pxrInternal_v0_24__pxrReserved__::TfRefBase.base" }
%"class.pxrInternal_v0_24__pxrReserved__::TfRefBase.base" = type <{ ptr, %"struct.std::atomic" }>
%"class.std::shared_ptr" = type { %"class.std::__shared_ptr" }
%"class.std::__shared_ptr" = type { ptr, %"class.std::__shared_count" }
%"class.std::__shared_count" = type { ptr }
%"class.std::vector" = type { %"struct.std::_Vector_base" }
%"struct.std::_Vector_base" = type { %"struct.std::_Vector_base<pxrInternal_v0_24__pxrReserved__::PcpPrimIndex_Graph::_UnsharedData, std::allocator<pxrInternal_v0_24__pxrReserved__::PcpPrimIndex_Graph::_UnsharedData>>::_Vector_impl" }
%"struct.std::_Vector_base<pxrInternal_v0_24__pxrReserved__::PcpPrimIndex_Graph::_UnsharedData, std::allocator<pxrInternal_v0_24__pxrReserved__::PcpPrimIndex_Graph::_UnsharedData>>::_Vector_impl" = type { %"struct.std::_Vector_base<pxrInternal_v0_24__pxrReserved__::PcpPrimIndex_Graph::_UnsharedData, std::allocator<pxrInternal_v0_24__pxrReserved__::PcpPrimIndex_Graph::_UnsharedData>>::_Vector_impl_data" }
%"struct.std::_Vector_base<pxrInternal_v0_24__pxrReserved__::PcpPrimIndex_Graph::_UnsharedData, std::allocator<pxrInternal_v0_24__pxrReserved__::PcpPrimIndex_Graph::_UnsharedData>>::_Vector_impl_data" = type { ptr, ptr, ptr }

; Function Attrs: mustprogress nounwind uwtable
define void @_ZN32pxrInternal_v0_24__pxrReserved__18PcpPrimIndex_Graph14SetHasPayloadsEb(ptr noundef nonnull align 8 dereferenceable(57) %0, i1 noundef zeroext %1) #2 align 2 {
  %3 = alloca ptr, align 8
  %4 = alloca i8, align 1
  store ptr %0, ptr %3, align 8
  %5 = zext i1 %1 to i8
  store i8 %5, ptr %4, align 1
  %6 = load ptr, ptr %3, align 8
  %7 = load i8, ptr %4, align 1
  %8 = trunc i8 %7 to i1
  %9 = getelementptr inbounds nuw %"class.pxrInternal_v0_24__pxrReserved__::PcpPrimIndex_Graph", ptr %6, i32 0, i32 4
  %10 = zext i1 %8 to i8
  %11 = load i8, ptr %9, align 8
  %12 = and i8 %11, -2
  %13 = or i8 %12, %10
  store i8 %13, ptr %9, align 8
  ret void
}