; Function Attrs: mustprogress nofree norecurse nosync nounwind willreturn memory(argmem: readwrite) uwtable
define void @_ZN32pxrInternal_v0_24__pxrReserved__18PcpPrimIndex_Graph14SetHasPayloadsEb(ptr nocapture noundef nonnull align 8 dereferenceable(57) %0, i1 noundef zeroext %1) local_unnamed_addr #6 align 2 {
  %3 = zext i1 %1 to i8
  %4 = getelementptr inbounds nuw i8, ptr %0, i64 56
  %5 = load i8, ptr %4, align 8
  %6 = and i8 %5, -2
  %7 = or disjoint i8 %6, %3
  store i8 %7, ptr %4, align 8
  ret void
}